Certificate:
    Data:
        Version: 3 (0x2)
        Serial Number: 2 (0x2)
        Signature Algorithm: sha256WithRSAEncryption
        Issuer: O=Example CA
        Validity
            Not Before: Sep 26 08:16:10 2024 GMT
            Not After : Sep 26 08:16:10 2025 GMT
        Subject: CN=prereserve-1mt-rhel-10.0-20240923.1-beta-40466-2024-09-26-07-47
        Subject Public Key Info:
            Public Key Algorithm: rsaEncryption
                Public-Key: (2048 bit)
                Modulus:
                    00:b6:57:0d:c5:28:ec:cc:33:36:75:d4:bb:2a:50:
                    a3:57:29:1f:ba:e5:c4:15:69:89:3f:9f:4f:94:37:
                    3f:1a:b6:82:aa:02:54:75:21:64:5a:fa:d4:ba:b5:
                    80:8f:ba:03:6a:04:63:f8:d5:25:79:c4:c4:5f:c6:
                    1d:36:3d:e7:e8:ed:d2:c8:16:b2:e1:36:ef:3a:22:
                    e4:60:d2:9c:aa:95:99:bf:c5:09:4a:b7:91:66:f5:
                    39:d7:14:2d:f7:50:b4:8d:c0:fb:88:9b:92:64:95:
                    4e:e5:ec:d5:65:33:71:24:fa:1b:14:11:7c:97:87:
                    87:d8:87:46:f4:77:30:29:23:cc:9d:8f:7a:3d:6b:
                    56:40:ec:b3:8b:e1:34:61:9f:d4:4d:9a:62:6c:74:
                    01:db:71:bb:45:8b:c6:c3:1e:01:96:69:60:09:1e:
                    19:56:20:33:fd:8e:31:3f:2d:b4:ee:b6:85:2d:b3:
                    a2:98:7c:85:3b:8a:01:4e:39:7c:23:62:3e:d3:2a:
                    7c:4c:f9:b6:d7:c6:7a:51:47:05:69:39:4e:93:b1:
                    2d:29:76:72:4a:80:7a:b1:93:85:6a:59:d4:9d:60:
                    e9:4a:c9:83:94:28:66:cd:03:ae:4d:64:70:56:88:
                    65:39:58:78:5e:7a:23:4a:a0:ed:bb:02:6d:7b:eb:
                    01:cb
                Exponent: 65537 (0x10001)
        X509v3 extensions:
            X509v3 Key Usage: critical
                Digital Signature, Key Encipherment, Key Agreement
            X509v3 Extended Key Usage: 
                TLS Web Server Authentication
            X509v3 Subject Key Identifier: 
                99:A9:DF:5F:E5:9F:F9:A6:3A:F9:CB:12:85:2D:4A:AC:1E:CA:A9:3C
            X509v3 Authority Key Identifier: 
                48:7A:BE:93:05:0E:55:BF:E7:06:6F:D2:0F:EC:40:2B:A1:A6:9F:4B
            X509v3 Subject Alternative Name: 
                IP Address:127.0.0.1
    Signature Algorithm: sha256WithRSAEncryption
    Signature Value:
        4a:67:d0:db:6d:1f:c3:58:e0:58:2c:f1:04:e7:06:7c:64:db:
        ab:00:af:40:e1:4f:ff:35:51:98:45:f3:fe:cd:73:ca:9c:1c:
        b6:94:02:86:2f:07:80:43:9f:25:89:b7:67:10:d0:87:4c:ee:
        b1:49:74:a3:58:96:c1:4d:67:54:e0:55:af:4b:03:f4:1d:c4:
        ce:2e:5c:67:d6:98:2f:b0:51:a2:78:21:24:a3:ad:28:b0:d1:
        08:50:d7:ad:58:cc:ab:fa:37:6a:b0:f7:3b:de:2e:92:ad:38:
        ba:83:fb:30:15:00:a0:27:dc:57:79:35:7d:ec:b0:4b:ee:02:
        ee:6b:2d:5e:6d:df:d8:b6:a7:84:1a:fe:07:57:c3:84:e8:d3:
        77:12:1e:88:83:58:b6:6e:9e:94:4e:14:bb:8b:f9:d2:fb:7c:
        2d:bc:5e:9b:49:bd:d6:f9:d4:17:d1:59:64:5e:f3:b9:5a:18:
        9b:cb:14:56:53:af:28:2c:1a:5e:fc:13:d3:bd:92:c7:aa:2e:
        a9:7f:93:92:84:2d:06:95:03:d1:34:2d:c4:6e:af:f5:ac:68:
        e5:13:50:80:4e:65:6f:dd:44:f8:0f:d1:7c:94:0b:a6:0d:65:
        9c:8b:55:65:f1:fb:01:b7:98:0a:b5:ad:64:c3:cf:36:1c:9a:
        91:4b:6f:1d
-----BEGIN CERTIFICATE-----
MIIDUjCCAjqgAwIBAgIBAjANBgkqhkiG9w0BAQsFADAVMRMwEQYDVQQKDApFeGFt
cGxlIENBMB4XDTI0MDkyNjA4MTYxMFoXDTI1MDkyNjA4MTYxMFowSjFIMEYGA1UE
Aww/cHJlcmVzZXJ2ZS0xbXQtcmhlbC0xMC4wLTIwMjQwOTIzLjEtYmV0YS00MDQ2
Ni0yMDI0LTA5LTI2LTA3LTQ3MIIBIjANBgkqhkiG9w0BAQEFAAOCAQ8AMIIBCgKC
AQEAtlcNxSjszDM2ddS7KlCjVykfuuXEFWmJP59PlDc/GraCqgJUdSFkWvrUurWA
j7oDagRj+NUlecTEX8YdNj3n6O3SyBay4TbvOiLkYNKcqpWZv8UJSreRZvU51xQt
91C0jcD7iJuSZJVO5ezVZTNxJPobFBF8l4eH2IdG9HcwKSPMnY96PWtWQOyzi+E0
YZ/UTZpibHQB23G7RYvGwx4BlmlgCR4ZViAz/Y4xPy207raFLbOimHyFO4oBTjl8
I2I+0yp8TPm218Z6UUcFaTlOk7EtKXZySoB6sZOFalnUnWDpSsmDlChmzQOuTWRw
VohlOVh4XnojSqDtuwJte+sBywIDAQABo3gwdjAOBgNVHQ8BAf8EBAMCA6gwEwYD
VR0lBAwwCgYIKwYBBQUHAwEwHQYDVR0OBBYEFJmp31/ln/mmOvnLEoUtSqweyqk8
MB8GA1UdIwQYMBaAFEh6vpMFDlW/5wZv0g/sQCuhpp9LMA8GA1UdEQQIMAaHBH8A
AAEwDQYJKoZIhvcNAQELBQADggEBAEpn0NttH8NY4Fgs8QTnBnxk26sAr0DhT/81
UZhF8/7Nc8qcHLaUAoYvB4BDnyWJt2cQ0IdM7rFJdKNYlsFNZ1TgVa9LA/QdxM4u
XGfWmC+wUaJ4ISSjrSiw0QhQ161YzKv6N2qw9zveLpKtOLqD+zAVAKAn3Fd5NX3s
sEvuAu5rLV5t39i2p4Qa/gdXw4To03cSHoiDWLZunpROFLuL+dL7fC28XptJvdb5
1BfRWWRe87laGJvLFFZTrygsGl78E9O9kseqLql/k5KELQaVA9E0LcRur/WsaOUT
UIBOZW/dRPgP0XyUC6YNZZyLVWXx+wG3mAq1rWTDzzYcmpFLbx0=
-----END CERTIFICATE-----
