Certificate:
    Data:
        Version: 3 (0x2)
        Serial Number: 1 (0x1)
        Signature Algorithm: sha256WithRSAEncryption
        Issuer: O=Example CA
        Validity
            Not Before: Sep 26 08:04:02 2019 GMT
            Not After : Sep 26 08:04:02 2034 GMT
        Subject: O=Example CA
        Subject Public Key Info:
            Public Key Algorithm: rsaEncryption
                Public-Key: (2048 bit)
                Modulus:
                    00:cb:c7:da:d0:98:67:c0:36:9a:3c:9b:09:22:a1:
                    46:20:2b:e6:05:7b:4d:33:06:ba:05:41:61:4a:2a:
                    24:50:ae:19:00:2f:e0:12:80:34:fa:99:e4:1a:09:
                    0a:a8:08:ec:dc:1f:82:3c:02:c5:ff:2b:0c:22:f5:
                    8f:4a:e9:0e:29:b3:cf:c7:bd:fe:56:48:5b:6d:5d:
                    f5:eb:97:b7:3c:83:5e:dc:fe:b5:f9:99:ef:40:9f:
                    93:3f:91:6e:66:a7:37:fc:7e:fe:0e:a7:9d:fb:fc:
                    54:6e:e6:5a:52:a0:b1:08:50:a5:44:28:42:51:25:
                    b3:e3:e7:87:03:6a:36:67:16:a5:76:3e:93:fc:63:
                    f9:65:55:5f:5c:d8:5f:eb:f0:61:29:44:41:12:d7:
                    56:17:a5:07:b0:2f:95:26:1e:2d:3c:fe:a0:16:61:
                    9b:ca:4b:57:d3:90:49:df:33:1a:fd:d3:2f:48:61:
                    6f:6c:e3:95:f6:90:cd:a4:06:f7:17:e9:53:75:2a:
                    1d:ea:28:40:25:1d:b1:d3:12:fb:7f:bf:fa:79:8c:
                    1a:f2:57:a6:10:dc:0b:d6:0d:c6:7f:52:39:a2:c1:
                    c2:98:2f:cc:39:e0:10:4d:fa:a9:e8:47:99:6f:89:
                    3e:af:f3:7b:c6:96:9c:28:9c:91:bc:ff:3e:54:60:
                    31:1f
                Exponent: 65537 (0x10001)
        X509v3 extensions:
            X509v3 Basic Constraints: critical
                CA:TRUE
            X509v3 Key Usage: critical
                Certificate Sign, CRL Sign
            X509v3 Subject Key Identifier: 
                B0:F1:5C:68:BC:5B:9A:1E:3E:90:21:D3:53:0A:08:18:3D:A2:27:2C
            X509v3 Authority Key Identifier: 
                B0:F1:5C:68:BC:5B:9A:1E:3E:90:21:D3:53:0A:08:18:3D:A2:27:2C
    Signature Algorithm: sha256WithRSAEncryption
    Signature Value:
        01:53:1c:32:ac:d4:b1:62:11:1b:fe:d1:46:13:3e:c9:56:2c:
        93:ae:03:58:32:03:f7:4d:e7:39:d2:8c:5d:65:10:8f:ca:7e:
        dd:cc:af:bc:6b:40:60:86:72:f5:ba:97:dd:14:31:0d:b4:88:
        83:1e:93:82:38:8e:10:47:ea:fb:f6:7a:f7:8f:5b:e8:6b:9d:
        bc:56:ae:42:67:79:86:37:92:e7:5e:88:e2:1b:b1:d4:85:5c:
        b0:0f:51:67:6b:95:17:d9:a8:4e:cc:79:4d:e5:ec:c1:0d:e2:
        cd:fa:af:de:7b:a9:58:1b:c4:4e:3c:0d:bd:d8:34:22:32:7e:
        c2:2c:78:70:02:2a:b0:06:5e:6c:37:06:ca:68:4a:f0:25:16:
        6f:13:89:e7:ee:01:b2:a6:15:ce:f5:29:2c:41:6c:32:73:04:
        07:ca:0a:ca:00:32:8e:f6:15:1c:c8:cd:03:06:11:ab:f6:60:
        18:df:33:37:f8:7b:de:16:e0:a2:e3:d3:7e:55:3f:2d:95:1a:
        36:34:84:3c:dc:e5:26:e1:d0:1e:1f:bc:9e:76:fb:50:2e:0b:
        0e:76:3e:6d:79:6e:10:98:5c:da:b6:3d:c8:4f:dd:83:1f:e8:
        aa:63:3a:5e:a0:fe:e2:08:b9:69:f8:7d:c8:d5:ae:f0:ce:8d:
        89:96:3a:18
-----BEGIN CERTIFICATE-----
MIIDCDCCAfCgAwIBAgIBATANBgkqhkiG9w0BAQsFADAVMRMwEQYDVQQKDApFeGFt
cGxlIENBMB4XDTE5MDkyNjA4MDQwMloXDTM0MDkyNjA4MDQwMlowFTETMBEGA1UE
CgwKRXhhbXBsZSBDQTCCASIwDQYJKoZIhvcNAQEBBQADggEPADCCAQoCggEBAMvH
2tCYZ8A2mjybCSKhRiAr5gV7TTMGugVBYUoqJFCuGQAv4BKANPqZ5BoJCqgI7Nwf
gjwCxf8rDCL1j0rpDimzz8e9/lZIW21d9euXtzyDXtz+tfmZ70Cfkz+RbmanN/x+
/g6nnfv8VG7mWlKgsQhQpUQoQlEls+PnhwNqNmcWpXY+k/xj+WVVX1zYX+vwYSlE
QRLXVhelB7AvlSYeLTz+oBZhm8pLV9OQSd8zGv3TL0hhb2zjlfaQzaQG9xfpU3Uq
HeooQCUdsdMS+3+/+nmMGvJXphDcC9YNxn9SOaLBwpgvzDngEE36qehHmW+JPq/z
e8aWnCickbz/PlRgMR8CAwEAAaNjMGEwDwYDVR0TAQH/BAUwAwEB/zAOBgNVHQ8B
Af8EBAMCAQYwHQYDVR0OBBYEFLDxXGi8W5oePpAh01MKCBg9oicsMB8GA1UdIwQY
MBaAFLDxXGi8W5oePpAh01MKCBg9oicsMA0GCSqGSIb3DQEBCwUAA4IBAQABUxwy
rNSxYhEb/tFGEz7JViyTrgNYMgP3Tec50oxdZRCPyn7dzK+8a0BghnL1upfdFDEN
tIiDHpOCOI4QR+r79nr3j1voa528Vq5CZ3mGN5LnXojiG7HUhVywD1Fna5UX2ahO
zHlN5ezBDeLN+q/ee6lYG8ROPA292DQiMn7CLHhwAiqwBl5sNwbKaErwJRZvE4nn
7gGyphXO9SksQWwycwQHygrKADKO9hUcyM0DBhGr9mAY3zM3+HveFuCi49N+VT8t
lRo2NIQ83OUm4dAeH7yedvtQLgsOdj5teW4QmFzatj3IT92DH+iqYzpeoP7iCLlp
+H3I1a7wzo2JljoY
-----END CERTIFICATE-----
