Certificate:
    Data:
        Version: 3 (0x2)
        Serial Number: 1 (0x1)
        Signature Algorithm: sha256WithRSAEncryption
        Issuer: O=Example CA
        Validity
            Not Before: Sep 26 08:16:09 2019 GMT
            Not After : Sep 26 08:16:09 2034 GMT
        Subject: O=Example CA
        Subject Public Key Info:
            Public Key Algorithm: rsaEncryption
                Public-Key: (2048 bit)
                Modulus:
                    00:ce:13:84:20:b4:6d:27:50:52:70:ac:90:88:ec:
                    b6:24:3e:0d:4d:57:61:0c:fc:7a:31:e3:26:2c:d4:
                    18:1a:84:60:b9:b3:6e:10:37:58:41:10:52:9c:7a:
                    e4:0c:84:41:b1:1d:c9:54:8d:b6:27:70:11:04:12:
                    b2:27:bc:fa:02:34:84:89:f7:b2:38:9e:fd:b2:86:
                    4f:cc:47:32:d2:60:93:b5:29:90:69:dc:3e:77:69:
                    89:c9:0a:bb:bb:7b:43:d1:d7:cd:37:77:9e:fd:40:
                    80:18:10:ad:33:29:ad:c9:a6:90:93:51:33:76:e8:
                    81:58:35:aa:7e:4b:ba:a5:5c:fb:82:bc:55:d5:ea:
                    fc:09:bc:9d:4d:99:fd:f1:ce:42:2e:19:d2:be:33:
                    97:60:23:9b:11:28:9a:69:fe:ac:eb:5d:66:ce:6a:
                    22:6a:09:07:ac:a2:02:fb:14:d3:38:52:36:c0:5d:
                    df:c1:b6:1a:52:13:ce:c0:fc:7d:78:d1:36:49:9c:
                    a5:02:f6:13:06:47:ab:3b:26:52:d8:08:53:96:2e:
                    72:8f:8c:54:d9:23:fa:44:67:b1:77:14:75:7e:25:
                    66:ad:a3:c6:bb:3c:df:a0:21:ef:e4:75:68:83:26:
                    36:3b:c2:ef:eb:26:9d:3c:27:7a:81:2d:8d:62:85:
                    b8:09
                Exponent: 65537 (0x10001)
        X509v3 extensions:
            X509v3 Basic Constraints: critical
                CA:TRUE
            X509v3 Key Usage: critical
                Certificate Sign, CRL Sign
            X509v3 Subject Key Identifier: 
                48:7A:BE:93:05:0E:55:BF:E7:06:6F:D2:0F:EC:40:2B:A1:A6:9F:4B
            X509v3 Authority Key Identifier: 
                48:7A:BE:93:05:0E:55:BF:E7:06:6F:D2:0F:EC:40:2B:A1:A6:9F:4B
    Signature Algorithm: sha256WithRSAEncryption
    Signature Value:
        7d:03:d5:ee:9b:b1:9e:69:95:b9:2a:e2:83:7c:05:00:0e:57:
        73:bc:a6:0d:0b:5d:2b:73:60:61:73:c4:8b:42:9d:4f:af:0f:
        7b:99:b1:2e:1a:ea:41:92:1e:ae:8e:88:65:93:a0:83:d8:33:
        cc:9f:05:61:97:21:22:68:bf:d2:85:0b:4a:dd:6d:77:64:5b:
        35:b7:09:4b:e2:98:3a:ee:28:c5:a2:93:0f:d1:61:cd:bf:63:
        a9:f1:d9:04:78:9c:52:a8:03:64:34:26:c8:5f:02:9b:9c:c4:
        22:f6:2c:66:50:99:00:75:66:70:d2:5f:e5:4f:d8:69:68:53:
        36:f3:0e:37:9a:a9:87:aa:05:24:ba:56:b5:ac:c8:a0:7d:ea:
        9b:69:fa:f7:79:c8:2d:f9:40:77:06:e0:2b:fd:bc:43:13:8f:
        77:32:0b:37:28:17:53:76:04:5d:b2:74:c1:01:09:b0:11:7c:
        29:24:9c:1a:77:4a:c7:fd:4b:5c:e9:ba:ea:56:d8:c5:b8:34:
        65:92:6e:4d:53:7c:81:c2:8a:44:2f:b5:f8:0d:1a:a5:db:f8:
        0a:b3:9c:81:36:b6:cb:87:c2:dc:79:26:ce:da:e0:d3:29:0b:
        9c:81:2d:d5:e9:90:95:fa:4d:de:6c:ea:c0:bb:22:a1:93:8b:
        37:80:1a:17
-----BEGIN CERTIFICATE-----
MIIDCDCCAfCgAwIBAgIBATANBgkqhkiG9w0BAQsFADAVMRMwEQYDVQQKDApFeGFt
cGxlIENBMB4XDTE5MDkyNjA4MTYwOVoXDTM0MDkyNjA4MTYwOVowFTETMBEGA1UE
CgwKRXhhbXBsZSBDQTCCASIwDQYJKoZIhvcNAQEBBQADggEPADCCAQoCggEBAM4T
hCC0bSdQUnCskIjstiQ+DU1XYQz8ejHjJizUGBqEYLmzbhA3WEEQUpx65AyEQbEd
yVSNtidwEQQSsie8+gI0hIn3sjie/bKGT8xHMtJgk7UpkGncPndpickKu7t7Q9HX
zTd3nv1AgBgQrTMprcmmkJNRM3bogVg1qn5LuqVc+4K8VdXq/Am8nU2Z/fHOQi4Z
0r4zl2AjmxEommn+rOtdZs5qImoJB6yiAvsU0zhSNsBd38G2GlITzsD8fXjRNkmc
pQL2EwZHqzsmUtgIU5Yuco+MVNkj+kRnsXcUdX4lZq2jxrs836Ah7+R1aIMmNjvC
7+smnTwneoEtjWKFuAkCAwEAAaNjMGEwDwYDVR0TAQH/BAUwAwEB/zAOBgNVHQ8B
Af8EBAMCAQYwHQYDVR0OBBYEFEh6vpMFDlW/5wZv0g/sQCuhpp9LMB8GA1UdIwQY
MBaAFEh6vpMFDlW/5wZv0g/sQCuhpp9LMA0GCSqGSIb3DQEBCwUAA4IBAQB9A9Xu
m7GeaZW5KuKDfAUADldzvKYNC10rc2Bhc8SLQp1Prw97mbEuGupBkh6ujohlk6CD
2DPMnwVhlyEiaL/ShQtK3W13ZFs1twlL4pg67ijFopMP0WHNv2Op8dkEeJxSqANk
NCbIXwKbnMQi9ixmUJkAdWZw0l/lT9hpaFM28w43mqmHqgUkula1rMigfeqbafr3
ecgt+UB3BuAr/bxDE493Mgs3KBdTdgRdsnTBAQmwEXwpJJwad0rH/Utc6brqVtjF
uDRlkm5NU3yBwopEL7X4DRql2/gKs5yBNrbLh8LceSbO2uDTKQucgS3V6ZCV+k3e
bOrAuyKhk4s3gBoX
-----END CERTIFICATE-----
